((lp1
I1960
aI1760
aI1380
aI1630
aI1430
aI1140
aI1240
aI1610
aI1410
aI1660
aI1210
aI1570
aI1040
aI1500
aI1360
aI1700
aI1120
aI1970
aI1930
aI1650
aI1550
aI1300
aI1990
aI1060
aI1560
aI1640
aI1890
aI1860
aI1150
aI1450
aI1510
aI1100
aI1840
aI1940
aI1900
aI1440
aI1030
aI1780
aI1540
aI1710
aI1050
aI1250
aI1080
aI1280
aI1600
aI1530
aI1270
aI1470
aI1070
aI1370
aI1130
aI1820
aI1980
aI1180
aI1010
aI1770
aI1000
aI1200
aI1230
aI1830
aI1320
aI1390
aI1460
aI1160
aI1190
aI1580
aI1950
aI1520
aI1810
aI1910
aI1400
aI1720
aI1740
aI1110
aI1220
aI1790
aI1420
aI1490
aI1290
aI1800
aI1920
aI1620
aI1870
aI1340
aI1730
aI1020
aI1880
aI1310
aI1680
aI1090
aI1850
aI1260
aI1170
aI1590
aI1330
aI1750
aI1690
aI1350
aI1480
aI1670
a(lp2
F0.14699999999999999
aF0.17599999999999999
aF0.11899999999999999
aF0.13500000000000001
aF0.16200000000000001
aF0.13800000000000001
aF0.10000000000000001
aF0.154
aF0.129
aF0.13
aF0.156
aF0.115
aF0.10199999999999999
aF0.14399999999999999
aF0.108
aF0.14899999999999999
aF0.13700000000000001
aF0.14599999999999999
aF0.10299999999999999
aF0.10100000000000001
aF0.17000000000000001
aF0.14499999999999999
aF0.19700000000000001
aF0.19
aF0.189
aF0.16800000000000001
aF0.17299999999999999
aF0.13600000000000001
aF0.157
aF0.11
aF0.19900000000000001
aF0.14299999999999999
aF0.123
aF0.192
aF0.17699999999999999
aF0.14999999999999999
aF0.19600000000000001
aF0.182
aF0.11700000000000001
aF0.19500000000000001
aF0.151
aF0.183
aF0.105
aF0.125
aF0.159
aF0.191
aF0.17899999999999999
aF0.127
aF0.155
aF0.16400000000000001
aF0.126
aF0.187
aF0.106
aF0.17100000000000001
aF0.16300000000000001
aF0.153
aF0.14000000000000001
aF0.112
aF0.16500000000000001
aF0.17799999999999999
aF0.16600000000000001
aF0.161
aF0.19800000000000001
aF0.17499999999999999
aF0.13400000000000001
aF0.104
aF0.17999999999999999
aF0.11799999999999999
aF0.188
aF0.16900000000000001
aF0.111
aF0.12
aF0.19400000000000001
aF0.186
aF0.113
aF0.114
aF0.16700000000000001
aF0.13200000000000001
aF0.152
aF0.14099999999999999
aF0.193
aF0.17399999999999999
aF0.11600000000000001
aF0.18099999999999999
aF0.13900000000000001
aF0.185
aF0.158
aF0.17199999999999999
aF0.16
aF0.13300000000000001
aF0.128
aF0.122
aF0.184
aF0.124
aF0.14199999999999999
aF0.107
aF0.109
aF0.121
aF0.13100000000000001
aF0.14799999999999999
a(lp3
I8
aI6
aI7
a(lp4
I173
aI175
aI157
aI154
aI177
aI164
aI112
aI134
aI181
aI172
aI169
aI158
aI184
aI163
aI103
aI131
aI114
aI170
aI106
aI135
aI144
aI191
aI127
aI171
aI130
aI136
aI133
aI123
aI137
aI194
aI121
aI186
aI187
aI145
aI117
aI195
aI138
aI179
aI104
aI110
aI128
aI122
aI178
aI176
aI118
aI105
aI166
aI155
aI189
aI160
aI165
aI139
aI111
aI150
aI188
aI141
aI161
aI183
aI140
aI182
aI193
aI143
aI185
aI116
aI108
aI153
aI162
aI147
aI196
aI120
aI198
aI109
aI125
aI107
aI167
aI102
aI199
aI159
aI146
aI174
aI151
aI113
aI129
aI197
aI101
aI126
aI192
aI124
aI152
aI142
aI115
aI100
aI149
aI190
aI180
aI132
aI119
aI168
aI148
aI156
a(lp5
F0.50600000000000001
aF0.63
aF0.504
aF0.628
aF0.51000000000000001
aF0.56200000000000006
aF0.61199999999999999
aF0.51800000000000002
aF0.62
aF0.66400000000000003
aF0.53800000000000003
aF0.52800000000000002
aF0.56599999999999995
aF0.67400000000000004
aF0.65800000000000003
aF0.55800000000000005
aF0.68799999999999994
aF0.57999999999999996
aF0.502
aF0.60999999999999999
aF0.63600000000000001
aF0.54200000000000004
aF0.53400000000000003
aF0.5
aF0.51400000000000001
aF0.68200000000000005
aF0.59999999999999998
aF0.55600000000000005
aF0.57599999999999996
aF0.65000000000000002
aF0.54600000000000004
aF0.66600000000000004
aF0.69199999999999995
aF0.60599999999999998
aF0.54400000000000004
aF0.67000000000000004
aF0.67800000000000005
aF0.63400000000000001
aF0.60799999999999998
aF0.69799999999999995
aF0.68400000000000005
aF0.59399999999999997
aF0.57799999999999996
aF0.61599999999999999
aF0.56799999999999995
aF0.69599999999999995
aF0.56399999999999995
aF0.63800000000000001
aF0.55000000000000004
aF0.58199999999999996
aF0.57199999999999995
aF0.66000000000000003
aF0.626
aF0.64600000000000002
aF0.53000000000000003
aF0.50800000000000001
aF0.52200000000000002
aF0.51600000000000001
aF0.69399999999999995
aF0.63200000000000001
aF0.54800000000000004
aF0.58399999999999996
aF0.68000000000000005
aF0.64400000000000002
aF0.622
aF0.68999999999999995
aF0.60399999999999998
aF0.57399999999999995
aF0.55200000000000005
aF0.64200000000000002
aF0.59599999999999997
aF0.624
aF0.59199999999999997
aF0.65400000000000003
aF0.53200000000000003
aF0.53600000000000003
aF0.64000000000000001
aF0.67600000000000005
aF0.65600000000000003
aF0.67200000000000004
aF0.58999999999999997
aF0.52400000000000002
aF0.61799999999999999
aF0.56999999999999995
aF0.65200000000000002
aF0.52000000000000002
aF0.54000000000000004
aF0.58799999999999997
aF0.68600000000000005
aF0.58599999999999997
aF0.61399999999999999
aF0.66800000000000004
aF0.56000000000000005
aF0.55400000000000005
aF0.66200000000000003
aF0.59799999999999998
aF0.64800000000000002
aF0.52600000000000002
aF0.51200000000000001
aF0.60199999999999998
a(lp6
F0.27500000000000002
aF0.27700000000000002
aF0.30399999999999999
aF0.28599999999999998
aF0.29399999999999998
aF0.27100000000000002
aF0.317
aF0.30199999999999999
aF0.29099999999999998
aF0.313
aF0.26100000000000001
aF0.28499999999999998
aF0.33700000000000002
aF0.32600000000000001
aF0.28299999999999997
aF0.29799999999999999
aF0.33800000000000002
aF0.26600000000000001
aF0.34799999999999998
aF0.32900000000000001
aF0.28100000000000003
aF0.254
aF0.32700000000000001
aF0.318
aF0.34200000000000003
aF0.255
aF0.30299999999999999
aF0.33200000000000002
aF0.32200000000000001
aF0.33000000000000002
aF0.32100000000000001
aF0.252
aF0.34599999999999997
aF0.31
aF0.26800000000000002
aF0.30599999999999999
aF0.308
aF0.27800000000000002
aF0.316
aF0.33400000000000002
aF0.34399999999999997
aF0.25600000000000001
aF0.315
aF0.34100000000000003
aF0.312
aF0.26000000000000001
aF0.32500000000000001
aF0.29299999999999998
aF0.27900000000000003
aF0.33100000000000002
aF0.28899999999999998
aF0.34899999999999998
aF0.34000000000000002
aF0.29899999999999999
aF0.28199999999999997
aF0.27300000000000002
aF0.33500000000000002
aF0.32000000000000001
aF0.26700000000000002
aF0.28799999999999998
aF0.29999999999999999
aF0.26400000000000001
aF0.28699999999999998
aF0.28999999999999998
aF0.251
aF0.27200000000000002
aF0.30099999999999999
aF0.26200000000000001
aF0.34699999999999998
aF0.32300000000000001
aF0.25700000000000001
aF0.253
aF0.32800000000000001
aF0.27600000000000002
aF0.26900000000000002
aF0.26500000000000001
aF0.30499999999999999
aF0.33300000000000002
aF0.25900000000000001
aF0.27400000000000002
aF0.25
aF0.32400000000000001
aF0.25800000000000001
aF0.29699999999999999
aF0.33600000000000002
aF0.29199999999999998
aF0.28000000000000003
aF0.307
aF0.28399999999999997
aF0.31900000000000001
aF0.309
aF0.34499999999999997
aF0.29599999999999999
aF0.26300000000000001
aF0.29499999999999998
aF0.311
aF0.314
aF0.33900000000000002
aF0.34300000000000003
aF0.27000000000000002
a(lp7
F0.24099999999999999
aF0.223
aF0.28599999999999998
aF0.20000000000000001
aF0.25600000000000001
aF0.21199999999999999
aF0.23000000000000001
aF0.28699999999999998
aF0.27900000000000003
aF0.222
aF0.23899999999999999
aF0.29399999999999998
aF0.25900000000000001
aF0.28399999999999997
aF0.28799999999999998
aF0.28299999999999997
aF0.25700000000000001
aF0.23599999999999999
aF0.20300000000000001
aF0.221
aF0.217
aF0.27600000000000002
aF0.27400000000000002
aF0.245
aF0.23499999999999999
aF0.25800000000000001
aF0.216
aF0.20200000000000001
aF0.26500000000000001
aF0.27300000000000002
aF0.249
aF0.27800000000000002
aF0.218
aF0.22800000000000001
aF0.29699999999999999
aF0.23300000000000001
aF0.29799999999999999
aF0.25
aF0.27700000000000002
aF0.246
aF0.24299999999999999
aF0.26700000000000002
aF0.219
aF0.20599999999999999
aF0.254
aF0.255
aF0.23699999999999999
aF0.26400000000000001
aF0.29099999999999998
aF0.247
aF0.26100000000000001
aF0.26900000000000002
aF0.20799999999999999
aF0.252
aF0.26200000000000001
aF0.23100000000000001
aF0.28199999999999997
aF0.29599999999999999
aF0.22600000000000001
aF0.20899999999999999
aF0.29299999999999998
aF0.24399999999999999
aF0.26300000000000001
aF0.215
aF0.21299999999999999
aF0.28999999999999998
aF0.29499999999999998
aF0.20399999999999999
aF0.23799999999999999
aF0.27100000000000002
aF0.22700000000000001
aF0.20999999999999999
aF0.21099999999999999
aF0.26800000000000002
aF0.251
aF0.26000000000000001
aF0.248
aF0.22
aF0.27000000000000002
aF0.26600000000000001
aF0.20499999999999999
aF0.24199999999999999
aF0.29199999999999998
aF0.224
aF0.22500000000000001
aF0.28100000000000003
aF0.29899999999999999
aF0.20699999999999999
aF0.28499999999999998
aF0.214
aF0.253
aF0.22900000000000001
aF0.23400000000000001
aF0.27500000000000002
aF0.28899999999999998
aF0.23200000000000001
aF0.27200000000000002
aF0.20100000000000001
aF0.28000000000000003
aF0.23999999999999999
at.