((lp1
I1800
aI1780
aI1680
aI1880
aI1440
aI1840
aI1900
aI1620
aI1960
aI1600
aI1180
aI1000
aI1760
aI1540
aI1520
aI1020
aI1560
aI1380
aI1220
aI1920
aI1580
aI1140
aI1700
aI1360
aI1300
aI1160
aI1100
aI1240
aI1080
aI1340
aI1660
aI1500
aI1640
aI1280
aI1940
aI1400
aI1320
aI1060
aI1460
aI1980
aI1420
aI1820
aI1480
aI1260
aI1720
aI1860
aI1040
aI1740
aI1200
aI1120
a(lp2
F0.16200000000000001
aF0.11799999999999999
aF0.104
aF0.19600000000000001
aF0.13400000000000001
aF0.182
aF0.14599999999999999
aF0.184
aF0.16600000000000001
aF0.16
aF0.19
aF0.17599999999999999
aF0.154
aF0.10000000000000001
aF0.106
aF0.17999999999999999
aF0.16800000000000001
aF0.112
aF0.10199999999999999
aF0.186
aF0.14000000000000001
aF0.108
aF0.17799999999999999
aF0.13
aF0.13600000000000001
aF0.124
aF0.13200000000000001
aF0.192
aF0.17399999999999999
aF0.122
aF0.14199999999999999
aF0.19800000000000001
aF0.17199999999999999
aF0.17000000000000001
aF0.13800000000000001
aF0.152
aF0.12
aF0.126
aF0.19400000000000001
aF0.158
aF0.11
aF0.128
aF0.16400000000000001
aF0.156
aF0.14999999999999999
aF0.11600000000000001
aF0.14399999999999999
aF0.188
aF0.114
aF0.14799999999999999
a(lp3
I6
aI7
aI8
a(lp4
I312
aI286
aI288
aI356
aI266
aI204
aI262
aI364
aI272
aI322
aI278
aI332
aI360
aI252
aI230
aI362
aI348
aI358
aI366
aI254
aI290
aI220
aI264
aI222
aI336
aI398
aI386
aI244
aI282
aI338
aI268
aI214
aI340
aI370
aI234
aI300
aI316
aI236
aI228
aI304
aI396
aI384
aI334
aI374
aI238
aI320
aI260
aI292
aI216
aI368
aI274
aI346
aI308
aI392
aI276
aI212
aI258
aI284
aI294
aI240
aI246
aI350
aI390
aI200
aI310
aI326
aI344
aI342
aI202
aI210
aI208
aI354
aI250
aI380
aI248
aI376
aI280
aI232
aI352
aI382
aI378
aI242
aI270
aI224
aI394
aI318
aI306
aI324
aI314
aI226
aI328
aI296
aI218
aI372
aI256
aI302
aI330
aI206
aI298
aI388
a(lp5
F0.67000000000000004
aF0.60799999999999998
aF0.63400000000000001
aF0.67400000000000004
aF0.69599999999999995
aF0.61199999999999999
aF0.628
aF0.64200000000000002
aF0.65400000000000003
aF0.61599999999999999
aF0.622
aF0.67600000000000005
aF0.60399999999999998
aF0.67800000000000005
aF0.624
aF0.69199999999999995
aF0.59999999999999998
aF0.68200000000000005
aF0.63800000000000001
aF0.65800000000000003
aF0.60599999999999998
aF0.64400000000000002
aF0.66000000000000003
aF0.66600000000000004
aF0.66800000000000004
aF0.67200000000000004
aF0.66400000000000003
aF0.61799999999999999
aF0.60199999999999998
aF0.626
aF0.61399999999999999
aF0.68000000000000005
aF0.64600000000000002
aF0.68400000000000005
aF0.69399999999999995
aF0.68600000000000005
aF0.64800000000000002
aF0.62
aF0.65000000000000002
aF0.65200000000000002
aF0.66200000000000003
aF0.68999999999999995
aF0.68799999999999994
aF0.63
aF0.65600000000000003
aF0.69799999999999995
aF0.60999999999999999
aF0.64000000000000001
aF0.63200000000000001
aF0.63600000000000001
a(lp6
F0.29599999999999999
aF0.26200000000000001
aF0.26800000000000002
aF0.25
aF0.33000000000000002
aF0.33600000000000002
aF0.25800000000000001
aF0.26000000000000001
aF0.28199999999999997
aF0.29399999999999998
aF0.308
aF0.30599999999999999
aF0.26600000000000001
aF0.27800000000000002
aF0.31
aF0.26400000000000001
aF0.314
aF0.316
aF0.33800000000000002
aF0.28799999999999998
aF0.28599999999999998
aF0.34799999999999998
aF0.32000000000000001
aF0.28399999999999997
aF0.32400000000000001
aF0.28999999999999998
aF0.28000000000000003
aF0.33200000000000002
aF0.27000000000000002
aF0.32200000000000001
aF0.318
aF0.252
aF0.30399999999999999
aF0.27200000000000002
aF0.34200000000000003
aF0.32800000000000001
aF0.34599999999999997
aF0.33400000000000002
aF0.25600000000000001
aF0.34000000000000002
aF0.312
aF0.29999999999999999
aF0.254
aF0.29199999999999998
aF0.27400000000000002
aF0.29799999999999999
aF0.32600000000000001
aF0.27600000000000002
aF0.34399999999999997
aF0.30199999999999999
a(lp7
F0.222
aF0.23999999999999999
aF0.27200000000000002
aF0.23200000000000001
aF0.246
aF0.252
aF0.29799999999999999
aF0.28799999999999998
aF0.248
aF0.26800000000000002
aF0.254
aF0.28999999999999998
aF0.20000000000000001
aF0.22800000000000001
aF0.218
aF0.26000000000000001
aF0.21199999999999999
aF0.216
aF0.28199999999999997
aF0.27800000000000002
aF0.28599999999999998
aF0.25600000000000001
aF0.27400000000000002
aF0.27600000000000002
aF0.25
aF0.26200000000000001
aF0.214
aF0.28399999999999997
aF0.29399999999999998
aF0.23599999999999999
aF0.24199999999999999
aF0.22
aF0.26600000000000001
aF0.23400000000000001
aF0.24399999999999999
aF0.20599999999999999
aF0.20799999999999999
aF0.224
aF0.20999999999999999
aF0.20399999999999999
aF0.29599999999999999
aF0.23000000000000001
aF0.23799999999999999
aF0.29199999999999998
aF0.20200000000000001
aF0.22600000000000001
aF0.26400000000000001
aF0.28000000000000003
aF0.27000000000000002
aF0.25800000000000001
at.