((lp1
I1640
aI1100
aI1800
aI1760
aI1710
aI1490
aI1010
aI1890
aI1000
aI1650
aI1990
aI1170
aI1420
aI1620
aI1300
aI1690
aI1210
aI1320
aI1180
aI1910
aI1050
aI1190
aI1520
aI1360
aI1310
aI1480
aI1940
aI1430
aI1660
aI1290
aI1850
aI1510
aI1390
aI1230
aI1370
aI1960
aI1680
aI1590
aI1250
aI1280
aI1160
aI1930
aI1200
aI1020
aI1040
aI1630
aI1340
aI1900
aI1790
aI1720
aI1460
aI1500
aI1820
aI1140
aI1030
aI1550
aI1440
aI1860
aI1700
aI1530
aI1780
aI1670
aI1080
aI1770
aI1610
aI1970
aI1570
aI1150
aI1730
aI1270
aI1110
aI1830
aI1070
aI1450
aI1470
aI1240
aI1410
aI1220
aI1560
aI1350
aI1060
aI1400
aI1840
aI1810
aI1540
aI1330
aI1920
aI1750
aI1130
aI1600
aI1880
aI1980
aI1120
aI1740
aI1580
aI1870
aI1380
aI1260
aI1950
aI1090
a(lp2
I476
aI392
aI328
aI310
aI358
aI356
aI422
aI380
aI322
aI334
aI478
aI480
aI482
aI308
aI424
aI494
aI472
aI396
aI428
aI344
aI408
aI498
aI348
aI458
aI414
aI496
aI354
aI384
aI450
aI324
aI420
aI464
aI430
aI452
aI360
aI484
aI436
aI376
aI326
aI332
aI374
aI466
aI444
aI378
aI448
aI386
aI370
aI394
aI316
aI470
aI398
aI404
aI468
aI320
aI346
aI456
aI366
aI318
aI338
aI368
aI488
aI416
aI330
aI410
aI438
aI390
aI342
aI314
aI434
aI352
aI304
aI460
aI432
aI440
aI372
aI364
aI388
aI382
aI400
aI300
aI350
aI306
aI426
aI474
aI446
aI336
aI362
aI312
aI402
aI462
aI454
aI406
aI412
aI486
aI418
aI492
aI302
aI442
aI490
aI340
a(lp3
I394
aI332
aI444
aI408
aI488
aI350
aI338
aI422
aI328
aI438
aI458
aI448
aI460
aI346
aI414
aI354
aI392
aI358
aI388
aI430
aI372
aI454
aI312
aI434
aI314
aI462
aI352
aI382
aI494
aI472
aI398
aI340
aI428
aI486
aI342
aI390
aI412
aI326
aI484
aI370
aI466
aI490
aI308
aI456
aI320
aI426
aI302
aI406
aI362
aI330
aI376
aI334
aI322
aI402
aI366
aI410
aI378
aI310
aI344
aI432
aI384
aI416
aI374
aI476
aI348
aI396
aI418
aI386
aI324
aI318
aI474
aI498
aI468
aI492
aI470
aI464
aI496
aI356
aI478
aI436
aI404
aI424
aI452
aI420
aI364
aI304
aI480
aI300
aI316
aI446
aI450
aI442
aI400
aI360
aI336
aI306
aI482
aI380
aI440
aI368
a(lp4
I72
aI78
aI81
aI64
aI87
aI96
aI73
aI67
aI89
aI79
aI76
aI70
aI85
aI93
aI95
aI99
aI66
aI68
aI82
aI69
aI80
aI97
aI90
aI88
aI94
aI86
aI65
aI74
aI75
aI91
aI71
aI83
aI98
aI84
aI92
aI77
a(lp5
F0.099000000000000005
aF0.27300000000000002
aF0.23100000000000001
aF0.059999999999999998
aF0.069000000000000006
aF0.17699999999999999
aF0.14399999999999999
aF0.20100000000000001
aF0.11700000000000001
aF0.048000000000000001
aF0.192
aF0.255
aF0.26100000000000001
aF0.20999999999999999
aF0.252
aF0.28499999999999998
aF0.153
aF0.0030000000000000001
aF0.126
aF0.033000000000000002
aF0.081000000000000003
aF0.035999999999999997
aF0
aF0.20699999999999999
aF0.249
aF0.24299999999999999
aF0.17999999999999999
aF0.29699999999999999
aF0.17100000000000001
aF0.111
aF0.0089999999999999993
aF0.189
aF0.108
aF0.26400000000000001
aF0.071999999999999995
aF0.074999999999999997
aF0.29399999999999998
aF0.19500000000000001
aF0.12
aF0.27000000000000002
aF0.017999999999999999
aF0.27600000000000002
aF0.123
aF0.246
aF0.105
aF0.114
aF0.14699999999999999
aF0.20399999999999999
aF0.183
aF0.219
aF0.22500000000000001
aF0.222
aF0.092999999999999999
aF0.012
aF0.159
aF0.25800000000000001
aF0.23400000000000001
aF0.063
aF0.28799999999999998
aF0.16500000000000001
aF0.014999999999999999
aF0.13200000000000001
aF0.23999999999999999
aF0.156
aF0.16800000000000001
aF0.021000000000000001
aF0.23699999999999999
aF0.042000000000000003
aF0.14099999999999999
aF0.19800000000000001
aF0.28199999999999997
aF0.21299999999999999
aF0.066000000000000003
aF0.17399999999999999
aF0.13800000000000001
aF0.089999999999999997
aF0.10199999999999999
aF0.0060000000000000001
aF0.039
aF0.22800000000000001
aF0.084000000000000005
aF0.086999999999999994
aF0.053999999999999999
aF0.050999999999999997
aF0.29099999999999998
aF0.27900000000000003
aF0.078
aF0.16200000000000001
aF0.13500000000000001
aF0.044999999999999998
aF0.14999999999999999
aF0.057000000000000002
aF0.129
aF0.186
aF0.096000000000000002
aF0.024
aF0.027
aF0.26700000000000002
aF0.029999999999999999
aF0.216
a(lp6
I6
aI8
aI7
a(lp7
I594
aI648
aI690
aI546
aI512
aI508
aI634
aI610
aI584
aI528
aI622
aI630
aI522
aI548
aI564
aI544
aI616
aI638
aI576
aI516
aI500
aI644
aI640
aI596
aI674
aI554
aI524
aI692
aI604
aI612
aI598
aI628
aI556
aI680
aI672
aI670
aI558
aI642
aI520
aI518
aI654
aI656
aI658
aI514
aI620
aI666
aI694
aI664
aI506
aI602
aI502
aI676
aI582
aI542
aI684
aI698
aI688
aI624
aI578
aI586
aI550
aI504
aI536
aI592
aI566
aI660
aI540
aI574
aI562
aI696
aI552
aI530
aI636
aI510
aI686
aI668
aI618
aI600
aI588
aI560
aI608
aI632
aI650
aI606
aI662
aI682
aI646
aI652
aI626
aI678
aI572
aI526
aI590
aI570
aI538
aI568
aI580
aI534
aI532
aI614
a(lp8
F0.54200000000000004
aF0.63
aF0.58799999999999997
aF0.56599999999999995
aF0.51800000000000002
aF0.62
aF0.63200000000000001
aF0.59799999999999998
aF0.504
aF0.60799999999999998
aF0.55200000000000005
aF0.68600000000000005
aF0.59999999999999998
aF0.628
aF0.54000000000000004
aF0.60399999999999998
aF0.66200000000000003
aF0.64000000000000001
aF0.53800000000000003
aF0.57799999999999996
aF0.59399999999999997
aF0.65600000000000003
aF0.66000000000000003
aF0.68200000000000005
aF0.63800000000000001
aF0.69599999999999995
aF0.66400000000000003
aF0.63400000000000001
aF0.67800000000000005
aF0.58399999999999996
aF0.68400000000000005
aF0.59199999999999997
aF0.65800000000000003
aF0.61799999999999999
aF0.52400000000000002
aF0.64600000000000002
aF0.56799999999999995
aF0.52200000000000002
aF0.67400000000000004
aF0.63600000000000001
aF0.56399999999999995
aF0.58199999999999996
aF0.53600000000000003
aF0.502
aF0.68999999999999995
aF0.51200000000000001
aF0.67200000000000004
aF0.66800000000000004
aF0.58999999999999997
aF0.626
aF0.57599999999999996
aF0.57199999999999995
aF0.54600000000000004
aF0.55600000000000005
aF0.56999999999999995
aF0.60999999999999999
aF0.55000000000000004
aF0.56200000000000006
aF0.61199999999999999
aF0.54400000000000004
aF0.51000000000000001
aF0.5
aF0.53200000000000003
aF0.624
aF0.57999999999999996
aF0.67600000000000005
aF0.65000000000000002
aF0.66600000000000004
aF0.69199999999999995
aF0.55800000000000005
aF0.65200000000000002
aF0.65400000000000003
aF0.52000000000000002
aF0.622
aF0.64400000000000002
aF0.60199999999999998
aF0.61599999999999999
aF0.50600000000000001
aF0.56000000000000005
aF0.51600000000000001
aF0.53400000000000003
aF0.68799999999999994
aF0.69799999999999995
aF0.52800000000000002
aF0.60599999999999998
aF0.50800000000000001
aF0.55400000000000005
aF0.61399999999999999
aF0.67000000000000004
aF0.52600000000000002
aF0.57399999999999995
aF0.64800000000000002
aF0.69399999999999995
aF0.58599999999999997
aF0.68000000000000005
aF0.59599999999999997
aF0.51400000000000001
aF0.64200000000000002
aF0.54800000000000004
aF0.53000000000000003
a(lp9
F0.252
aF0.26100000000000001
aF0.30299999999999999
aF0.33800000000000002
aF0.25600000000000001
aF0.26800000000000002
aF0.26500000000000001
aF0.32100000000000001
aF0.33900000000000002
aF0.25700000000000001
aF0.28599999999999998
aF0.32400000000000001
aF0.27400000000000002
aF0.28499999999999998
aF0.308
aF0.32200000000000001
aF0.315
aF0.33200000000000002
aF0.27000000000000002
aF0.25
aF0.29499999999999998
aF0.316
aF0.28799999999999998
aF0.34200000000000003
aF0.32800000000000001
aF0.33300000000000002
aF0.255
aF0.26600000000000001
aF0.28199999999999997
aF0.27500000000000002
aF0.27600000000000002
aF0.34699999999999998
aF0.32000000000000001
aF0.311
aF0.33700000000000002
aF0.28100000000000003
aF0.34000000000000002
aF0.30099999999999999
aF0.30599999999999999
aF0.27700000000000002
aF0.28699999999999998
aF0.29599999999999999
aF0.33600000000000002
aF0.34300000000000003
aF0.30199999999999999
aF0.29799999999999999
aF0.29199999999999998
aF0.312
aF0.30399999999999999
aF0.33400000000000002
aF0.28999999999999998
aF0.29399999999999998
aF0.34399999999999997
aF0.31
aF0.32500000000000001
aF0.26400000000000001
aF0.28899999999999998
aF0.27900000000000003
aF0.26700000000000002
aF0.318
aF0.32600000000000001
aF0.317
aF0.26300000000000001
aF0.30499999999999999
aF0.32700000000000001
aF0.25900000000000001
aF0.254
aF0.34599999999999997
aF0.29299999999999998
aF0.34799999999999998
aF0.33100000000000002
aF0.28299999999999997
aF0.309
aF0.34899999999999998
aF0.27300000000000002
aF0.26900000000000002
aF0.26200000000000001
aF0.32300000000000001
aF0.32900000000000001
aF0.27800000000000002
aF0.253
aF0.307
aF0.29699999999999999
aF0.34499999999999997
aF0.25800000000000001
aF0.26000000000000001
aF0.314
aF0.28000000000000003
aF0.27100000000000002
aF0.31900000000000001
aF0.313
aF0.29899999999999999
aF0.28399999999999997
aF0.29999999999999999
aF0.27200000000000002
aF0.34100000000000003
aF0.33000000000000002
aF0.251
aF0.33500000000000002
aF0.29099999999999998
a(lp10
F0.41799999999999998
aF0.40000000000000002
aF0.32500000000000001
aF0.48099999999999998
aF0.33700000000000002
aF0.502
aF0.54100000000000004
aF0.36399999999999999
aF0.38500000000000001
aF0.46300000000000002
aF0.27400000000000002
aF0.54700000000000004
aF0.31
aF0.35199999999999998
aF0.42099999999999999
aF0.316
aF0.48999999999999999
aF0.32800000000000001
aF0.34899999999999998
aF0.50800000000000001
aF0.33100000000000002
aF0.27100000000000002
aF0.45100000000000001
aF0.45400000000000001
aF0.27700000000000002
aF0.34000000000000002
aF0.442
aF0.51700000000000002
aF0.52300000000000002
aF0.41499999999999998
aF0.40600000000000003
aF0.28000000000000003
aF0.44800000000000001
aF0.379
aF0.52900000000000003
aF0.34300000000000003
aF0.25
aF0.37
aF0.42399999999999999
aF0.41199999999999998
aF0.49299999999999999
aF0.53500000000000003
aF0.253
aF0.54400000000000004
aF0.26500000000000001
aF0.51100000000000001
aF0.52000000000000002
aF0.38200000000000001
aF0.30099999999999999
aF0.28899999999999998
aF0.45700000000000002
aF0.25900000000000001
aF0.433
aF0.496
aF0.48399999999999999
aF0.313
aF0.40899999999999997
aF0.29199999999999998
aF0.29499999999999998
aF0.35799999999999998
aF0.40300000000000002
aF0.499
aF0.47199999999999998
aF0.52600000000000002
aF0.30399999999999999
aF0.51400000000000001
aF0.28599999999999998
aF0.439
aF0.42999999999999999
aF0.39700000000000002
aF0.42699999999999999
aF0.28299999999999997
aF0.38800000000000001
aF0.53800000000000003
aF0.34599999999999997
aF0.436
aF0.373
aF0.36099999999999999
aF0.26800000000000002
aF0.36699999999999999
aF0.33400000000000002
aF0.35499999999999998
aF0.47799999999999998
aF0.25600000000000001
aF0.44500000000000001
aF0.48699999999999999
aF0.307
aF0.46000000000000002
aF0.53200000000000003
aF0.39100000000000001
aF0.47499999999999998
aF0.39400000000000002
aF0.29799999999999999
aF0.505
aF0.26200000000000001
aF0.46899999999999997
aF0.46600000000000003
aF0.31900000000000001
aF0.32200000000000001
aF0.376
at.