((lp1
I2028
aI2031
aI2041
aI2025
aI2018
aI2034
aI2027
aI2021
aI2035
aI2039
aI2030
aI2022
aI2017
aI2038
aI2029
aI2042
aI2016
aI2043
aI2020
aI2036
aI2019
aI2045
aI2033
aI2037
aI2026
aI2044
aI2024
aI2032
aI2023
aI2040
a(lp2
F3.2000000000000002
aF2.1000000000000001
aF2.8999999999999999
aF1
aF1.6000000000000001
aF3.7000000000000002
aF3
aF3.1000000000000001
aF1.3999999999999999
aF2.3999999999999999
aF2.2999999999999998
aF3.3999999999999999
aF2
aF2.2000000000000002
aF2.7999999999999998
aF2.5
aF1.3
aF1.8999999999999999
aF1.2
aF3.8999999999999999
aF3.7999999999999998
aF3.6000000000000001
aF1.5
aF3.5
aF1.8
aF3.2999999999999998
aF2.6000000000000001
aF1.7
aF1.1000000000000001
aF2.7000000000000002
a(lp3
F0.0050000000000000001
aF0.012999999999999999
aF0.010999999999999999
aF0.019
aF0.01
aF0.027
aF0.029999999999999999
aF0.025000000000000001
aF0.0030000000000000001
aF0.025999999999999999
aF0.0089999999999999993
aF0.014
aF0.0040000000000000001
aF0.028000000000000001
aF0.001
aF0.0080000000000000002
aF0.023
aF0.021999999999999999
aF0.029000000000000001
aF0.0070000000000000001
aF0.017000000000000001
aF0.012
aF0.021000000000000001
aF0.002
aF0.016
aF0.017999999999999999
aF0.014999999999999999
aF0.024
aF0.02
aF0.0060000000000000001
at.